; ModuleID = '34/2295.c'
source_filename = "34/2295.c"
target datalayout = "e-m:e-p270:32:32-p271:32:32-p272:64:64-i64:64-f80:128-n8:16:32:64-S128"
target triple = "x86_64-pc-linux-gnu"

@.str = private unnamed_addr constant [3 x i8] c"%d\00", align 1
@.str.1 = private unnamed_addr constant [4 x i8] c"End\00", align 1
@.str.2 = private unnamed_addr constant [11 x i8] c"%d*3+1=%d\0A\00", align 1
@.str.3 = private unnamed_addr constant [9 x i8] c"%d/2=%d\0A\00", align 1

; Function Attrs: noinline nounwind uwtable
define dso_local i32 @main(i32 %0, i8** %1) #0 {
  %3 = alloca i32, align 4
  %4 = alloca i32, align 4
  %5 = alloca i8**, align 8
  %6 = alloca i32, align 4
  store i32 0, i32* %3, align 4
  store i32 %0, i32* %4, align 4
  store i8** %1, i8*** %5, align 8
  %7 = call i32 (i8*, ...) @__isoc99_scanf(i8* getelementptr inbounds ([3 x i8], [3 x i8]* @.str, i64 0, i64 0), i32* %6)
  %8 = load i32, i32* %6, align 4
  %9 = icmp eq i32 %8, 1
  br i1 %9, label %10, label %12

10:                                               ; preds = %2
  %11 = call i32 (i8*, ...) @printf(i8* getelementptr inbounds ([4 x i8], [4 x i8]* @.str.1, i64 0, i64 0))
  br label %49

12:                                               ; preds = %2
  br label %13

13:                                               ; preds = %46, %12
  %14 = load i32, i32* %6, align 4
  %15 = icmp ne i32 %14, 1
  br i1 %15, label %16, label %47

16:                                               ; preds = %13
  %17 = load i32, i32* %6, align 4
  %18 = load i32, i32* %6, align 4
  %19 = sdiv i32 %18, 2
  %20 = mul nsw i32 2, %19
  %21 = sub nsw i32 %17, %20
  %22 = icmp ne i32 %21, 0
  br i1 %22, label %23, label %32

23:                                               ; preds = %16
  %24 = load i32, i32* %6, align 4
  %25 = load i32, i32* %6, align 4
  %26 = mul nsw i32 %25, 3
  %27 = add nsw i32 %26, 1
  %28 = call i32 (i8*, ...) @printf(i8* getelementptr inbounds ([11 x i8], [11 x i8]* @.str.2, i64 0, i64 0), i32 %24, i32 %27)
  %29 = load i32, i32* %6, align 4
  %30 = mul nsw i32 %29, 3
  %31 = add nsw i32 %30, 1
  store i32 %31, i32* %6, align 4
  br label %32

32:                                               ; preds = %23, %16
  %33 = load i32, i32* %6, align 4
  %34 = load i32, i32* %6, align 4
  %35 = sdiv i32 %34, 2
  %36 = mul nsw i32 2, %35
  %37 = sub nsw i32 %33, %36
  %38 = icmp eq i32 %37, 0
  br i1 %38, label %39, label %46

39:                                               ; preds = %32
  %40 = load i32, i32* %6, align 4
  %41 = load i32, i32* %6, align 4
  %42 = sdiv i32 %41, 2
  %43 = call i32 (i8*, ...) @printf(i8* getelementptr inbounds ([9 x i8], [9 x i8]* @.str.3, i64 0, i64 0), i32 %40, i32 %42)
  %44 = load i32, i32* %6, align 4
  %45 = sdiv i32 %44, 2
  store i32 %45, i32* %6, align 4
  br label %46

46:                                               ; preds = %39, %32
  br label %13

47:                                               ; preds = %13
  %48 = call i32 (i8*, ...) @printf(i8* getelementptr inbounds ([4 x i8], [4 x i8]* @.str.1, i64 0, i64 0))
  br label %49

49:                                               ; preds = %47, %10
  ret i32 0
}

declare dso_local i32 @__isoc99_scanf(i8*, ...) #1

declare dso_local i32 @printf(i8*, ...) #1


!llvm.module.flags = !{!0}
!llvm.ident = !{!1}

!0 = !{i32 1, !"wchar_size", i32 4}
!1 = !{!"clang version 10.0.0-4ubuntu1 "}
